; Function Attrs: mustprogress nofree norecurse nosync nounwind willreturn memory(argmem: read) uwtable
define hidden noundef i64 @_ZNK19OpenColorIO_v2_4dev18NamedTransformImpl13getNumAliasesEv(ptr nocapture noundef nonnull readonly align 8 dereferenceable(224) %this) unnamed_addr #7 align 2 {
entry:
  %m_aliases = getelementptr inbounds i8, ptr %this, i64 40
  %_M_finish.i = getelementptr inbounds i8, ptr %this, i64 48
  %0 = load ptr, ptr %_M_finish.i, align 8
  %1 = load ptr, ptr %m_aliases, align 8
  %sub.ptr.lhs.cast.i = ptrtoint ptr %0 to i64
  %sub.ptr.rhs.cast.i = ptrtoint ptr %1 to i64
  %sub.ptr.sub.i = sub i64 %sub.ptr.lhs.cast.i, %sub.ptr.rhs.cast.i
  %sub.ptr.div.i = ashr exact i64 %sub.ptr.sub.i, 5
  ret i64 %sub.ptr.div.i
}